; Function Attrs: mustprogress uwtable
define void @_ZN6google8protobuf8internal14WireFormatLite14WriteBoolArrayEPKbiPNS0_2io17CodedOutputStreamE(ptr noundef %0, i32 noundef %1, ptr noundef %2) local_unnamed_addr #3 align 2 {
  %4 = getelementptr inbounds i8, ptr %2, i64 64
  %5 = load ptr, ptr %4, align 8
  %6 = load ptr, ptr %2, align 8
  %7 = ptrtoint ptr %6 to i64
  %8 = ptrtoint ptr %5 to i64
  %9 = sub i64 %7, %8
  %10 = sext i32 %1 to i64
  %11 = icmp slt i64 %9, %10
  br i1 %11, label %12, label %14

12:                                               ; preds = %3
  %13 = tail call noundef ptr @_ZN6google8protobuf2io19EpsCopyOutputStream16WriteRawFallbackEPKviPh(ptr noundef nonnull align 8 dereferenceable(59) %2, ptr noundef %0, i32 noundef %1, ptr noundef %5)
  br label %_ZN6google8protobuf8internalL10WriteArrayIbEEvPKT_iPNS0_2io17CodedOutputStreamE.exit

14:                                               ; preds = %3
  tail call void @llvm.memcpy.p0.p0.i64(ptr align 1 %5, ptr align 1 %0, i64 %10, i1 false)
  %15 = getelementptr inbounds i8, ptr %5, i64 %10
  br label %_ZN6google8protobuf8internalL10WriteArrayIbEEvPKT_iPNS0_2io17CodedOutputStreamE.exit

_ZN6google8protobuf8internalL10WriteArrayIbEEvPKT_iPNS0_2io17CodedOutputStreamE.exit: ; preds = %12, %14
  %.0.i.i.i = phi ptr [ %13, %12 ], [ %15, %14 ]
  store ptr %.0.i.i.i, ptr %4, align 8
  ret void
}